target datalayout = "e-m:e-p270:32:32-p271:32:32-p272:64:64-i64:64-i128:128-f80:128-n8:16:32:64-S128"
target triple = "x86_64-pc-linux-gnu"

%struct.FT_FaceRec_ = type { i64, i64, i64, i64, i64, ptr, ptr, i32, ptr, i32, ptr, %struct.FT_Generic_, %struct.FT_BBox_, i16, i16, i16, i16, i16, i16, i16, i16, ptr, ptr, ptr, ptr, ptr, ptr, %struct.FT_ListRec_, %struct.FT_Generic_, ptr, ptr }
%struct.FT_BBox_ = type { i64, i64, i64, i64 }
%struct.FT_ListRec_ = type { ptr, ptr }
%struct.FT_Generic_ = type { ptr, ptr }
%struct.FT_ModuleRec_ = type { ptr, ptr, ptr }
%struct.FT_Module_Class_ = type { i64, i64, ptr, i64, i64, ptr, ptr, ptr, ptr }
%struct.FT_Service_PsInfoRec_ = type { ptr, ptr, ptr, ptr, ptr }

@.str = private unnamed_addr constant [16 x i8] c"postscript-info\00", align 1

; Function Attrs: nounwind uwtable
define i64 @FT_Get_PS_Font_Value(ptr noundef %0, i32 noundef %1, i32 noundef %2, ptr noundef %3, i64 noundef %4) #0 {
  %6 = alloca ptr, align 8
  %7 = alloca i32, align 4
  %8 = alloca i32, align 4
  %9 = alloca ptr, align 8
  %10 = alloca i64, align 8
  %11 = alloca i32, align 4
  %12 = alloca ptr, align 8
  %13 = alloca ptr, align 8
  %14 = alloca ptr, align 8
  store ptr %0, ptr %6, align 8, !tbaa !3
  store i32 %1, ptr %7, align 4, !tbaa !42
  store i32 %2, ptr %8, align 4, !tbaa !42
  store ptr %3, ptr %9, align 8, !tbaa !31
  store i64 %4, ptr %10, align 8, !tbaa !47
  call void @llvm.lifetime.start.p0(i64 4, ptr %11) #2
  store i32 0, ptr %11, align 4, !tbaa !42
  call void @llvm.lifetime.start.p0(i64 8, ptr %12) #2
  store ptr null, ptr %12, align 8, !tbaa !38
  %15 = load ptr, ptr %6, align 8, !tbaa !3
  %16 = icmp ne ptr %15, null
  br i1 %16, label %17, label %59

17:                                               ; preds = %5
  br label %18

18:                                               ; preds = %17
  call void @llvm.lifetime.start.p0(i64 8, ptr %13) #2
  %19 = load ptr, ptr %6, align 8, !tbaa !3
  %20 = getelementptr inbounds nuw %struct.FT_FaceRec_, ptr %19, i32 0, i32 24
  %21 = load ptr, ptr %20, align 8, !tbaa !10
  store ptr %21, ptr %13, align 8, !tbaa !29
  call void @llvm.lifetime.start.p0(i64 8, ptr %14) #2
  store ptr null, ptr %14, align 8, !tbaa !31
  %22 = load ptr, ptr %13, align 8, !tbaa !29
  %23 = getelementptr inbounds nuw %struct.FT_ModuleRec_, ptr %22, i32 0, i32 0
  %24 = load ptr, ptr %23, align 8, !tbaa !32
  %25 = getelementptr inbounds nuw %struct.FT_Module_Class_, ptr %24, i32 0, i32 8
  %26 = load ptr, ptr %25, align 8, !tbaa !36
  %27 = icmp ne ptr %26, null
  br i1 %27, label %28, label %36

28:                                               ; preds = %18
  %29 = load ptr, ptr %13, align 8, !tbaa !29
  %30 = getelementptr inbounds nuw %struct.FT_ModuleRec_, ptr %29, i32 0, i32 0
  %31 = load ptr, ptr %30, align 8, !tbaa !32
  %32 = getelementptr inbounds nuw %struct.FT_Module_Class_, ptr %31, i32 0, i32 8
  %33 = load ptr, ptr %32, align 8, !tbaa !36
  %34 = load ptr, ptr %13, align 8, !tbaa !29
  %35 = call ptr %33(ptr noundef %34, ptr noundef @.str)
  store ptr %35, ptr %14, align 8, !tbaa !31
  br label %36

36:                                               ; preds = %28, %18
  %37 = load ptr, ptr %14, align 8, !tbaa !31
  store ptr %37, ptr %12, align 8, !tbaa !38
  call void @llvm.lifetime.end.p0(i64 8, ptr %14) #2
  call void @llvm.lifetime.end.p0(i64 8, ptr %13) #2
  br label %38

38:                                               ; preds = %36
  br label %39

39:                                               ; preds = %38
  %40 = load ptr, ptr %12, align 8, !tbaa !38
  %41 = icmp ne ptr %40, null
  br i1 %41, label %42, label %58

42:                                               ; preds = %39
  %43 = load ptr, ptr %12, align 8, !tbaa !38
  %44 = getelementptr inbounds nuw %struct.FT_Service_PsInfoRec_, ptr %43, i32 0, i32 4
  %45 = load ptr, ptr %44, align 8, !tbaa !48
  %46 = icmp ne ptr %45, null
  br i1 %46, label %47, label %58

47:                                               ; preds = %42
  %48 = load ptr, ptr %12, align 8, !tbaa !38
  %49 = getelementptr inbounds nuw %struct.FT_Service_PsInfoRec_, ptr %48, i32 0, i32 4
  %50 = load ptr, ptr %49, align 8, !tbaa !48
  %51 = load ptr, ptr %6, align 8, !tbaa !3
  %52 = load i32, ptr %7, align 4, !tbaa !42
  %53 = load i32, ptr %8, align 4, !tbaa !42
  %54 = load ptr, ptr %9, align 8, !tbaa !31
  %55 = load i64, ptr %10, align 8, !tbaa !47
  %56 = call i64 %50(ptr noundef %51, i32 noundef %52, i32 noundef %53, ptr noundef %54, i64 noundef %55)
  %57 = trunc i64 %56 to i32
  store i32 %57, ptr %11, align 4, !tbaa !42
  br label %58

58:                                               ; preds = %47, %42, %39
  br label %59

59:                                               ; preds = %58, %5
  %60 = load i32, ptr %11, align 4, !tbaa !42
  %61 = sext i32 %60 to i64
  call void @llvm.lifetime.end.p0(i64 8, ptr %12) #2
  call void @llvm.lifetime.end.p0(i64 4, ptr %11) #2
  ret i64 %61
}