; Function Attrs: nounwind uwtable
define range(i64 -2147483648, 2147483648) i64 @FT_Get_PS_Font_Value(ptr noundef %0, i32 noundef %1, i32 noundef %2, ptr noundef %3, i64 noundef %4) local_unnamed_addr #0 {
  %.not = icmp eq ptr %0, null
  br i1 %.not, label %.thread, label %6

6:                                                ; preds = %5
  %7 = getelementptr inbounds nuw i8, ptr %0, i64 176
  %8 = load ptr, ptr %7, align 8, !tbaa !3
  %9 = load ptr, ptr %8, align 8, !tbaa !25
  %10 = getelementptr inbounds nuw i8, ptr %9, i64 64
  %11 = load ptr, ptr %10, align 8, !tbaa !29
  %.not18 = icmp eq ptr %11, null
  br i1 %.not18, label %.thread, label %12

12:                                               ; preds = %6
  %13 = tail call ptr %11(ptr noundef nonnull %8, ptr noundef nonnull @.str) #1
  %.not19 = icmp eq ptr %13, null
  br i1 %.not19, label %.thread, label %14

14:                                               ; preds = %12
  %15 = getelementptr inbounds nuw i8, ptr %13, i64 32
  %16 = load ptr, ptr %15, align 8, !tbaa !35
  %.not20 = icmp eq ptr %16, null
  br i1 %.not20, label %.thread, label %17

17:                                               ; preds = %14
  %18 = tail call i64 %16(ptr noundef nonnull %0, i32 noundef %1, i32 noundef %2, ptr noundef %3, i64 noundef %4) #1
  %sext = shl i64 %18, 32
  %19 = ashr exact i64 %sext, 32
  br label %.thread

.thread:                                          ; preds = %6, %12, %14, %17, %5
  %.014 = phi i64 [ %19, %17 ], [ 0, %14 ], [ 0, %12 ], [ 0, %5 ], [ 0, %6 ]
  ret i64 %.014
}